target datalayout = "e-m:e-p270:32:32-p271:32:32-p272:64:64-i64:64-i128:128-f80:128-n8:16:32:64-S128"
target triple = "x86_64-unknown-linux-gnu"

%struct.uv_fs_s = type { ptr, i32, [6 x ptr], i32, ptr, ptr, i64, ptr, ptr, %struct.uv_stat_t, ptr, i32, i32, i32, i32, ptr, i64, i32, i32, double, double, %struct.uv__work, [4 x %struct.uv_buf_t] }
%struct.uv_stat_t = type { i64, i64, i64, i64, i64, i64, i64, i64, i64, i64, i64, i64, %struct.uv_timespec_t, %struct.uv_timespec_t, %struct.uv_timespec_t, %struct.uv_timespec_t }
%struct.uv_timespec_t = type { i64, i64 }
%struct.uv__work = type { ptr, ptr, ptr, %struct.uv__queue }
%struct.uv__queue = type { ptr, ptr }
%struct.uv_buf_t = type { ptr, i64 }
%struct.uv_loop_s = type { ptr, i32, %struct.uv__queue, %union.anon, ptr, i32, i64, i32, %struct.uv__queue, %struct.uv__queue, ptr, i32, i32, %struct.uv__queue, %union.pthread_mutex_t, %struct.uv_async_s, %union.pthread_rwlock_t, ptr, %struct.uv__queue, %struct.uv__queue, %struct.uv__queue, %struct.uv__queue, %struct.uv__queue, ptr, %struct.uv__io_s, i32, %struct.anon, i64, i64, [2 x i32], %struct.uv__io_s, %struct.uv_signal_s, i32, %struct.uv__io_s, ptr, i32 }
%union.anon = type { ptr }
%union.pthread_mutex_t = type { %struct.__pthread_mutex_s }
%struct.__pthread_mutex_s = type { i32, i32, i32, i32, i32, i16, i16, %struct.__pthread_internal_list }
%struct.__pthread_internal_list = type { ptr, ptr }
%struct.uv_async_s = type { ptr, ptr, i32, ptr, %struct.uv__queue, %union.anon.0, ptr, i32, ptr, %struct.uv__queue, i32 }
%union.anon.0 = type { [4 x ptr] }
%union.pthread_rwlock_t = type { %struct.__pthread_rwlock_arch_t }
%struct.__pthread_rwlock_arch_t = type { i32, i32, i32, i32, i32, i32, i32, i32, i8, [7 x i8], i64, i32 }
%struct.anon = type { ptr, i32 }
%struct.uv_signal_s = type { ptr, ptr, i32, ptr, %struct.uv__queue, %union.anon.1, ptr, i32, ptr, i32, %struct.anon.2, i32, i32 }
%union.anon.1 = type { [4 x ptr] }
%struct.anon.2 = type { ptr, ptr, ptr, i32 }
%struct.uv__io_s = type { ptr, %struct.uv__queue, %struct.uv__queue, i32, i32, i32 }

; Function Attrs: nounwind uwtable
define i32 @uv_fs_copyfile(ptr noundef %loop, ptr noundef %req, ptr noundef %path, ptr noundef %new_path, i32 noundef %flags, ptr noundef %cb) #0 {
entry:
  %retval = alloca i32, align 4
  %loop.addr = alloca ptr, align 8
  %req.addr = alloca ptr, align 8
  %path.addr = alloca ptr, align 8
  %new_path.addr = alloca ptr, align 8
  %flags.addr = alloca i32, align 4
  %cb.addr = alloca ptr, align 8
  %path_len = alloca i64, align 8
  %new_path_len = alloca i64, align 8
  store ptr %loop, ptr %loop.addr, align 8
  store ptr %req, ptr %req.addr, align 8
  store ptr %path, ptr %path.addr, align 8
  store ptr %new_path, ptr %new_path.addr, align 8
  store i32 %flags, ptr %flags.addr, align 4
  store ptr %cb, ptr %cb.addr, align 8
  br label %do.body

do.body:                                          ; preds = %entry
  %0 = load ptr, ptr %req.addr, align 8
  %cmp = icmp eq ptr %0, null
  br i1 %cmp, label %if.then, label %if.end

if.then:                                          ; preds = %do.body
  store i32 -22, ptr %retval, align 4
  br label %do.end38

if.end:                                           ; preds = %do.body
  br label %do.body1

do.body1:                                         ; preds = %if.end
  %1 = load ptr, ptr %req.addr, align 8
  %type = getelementptr inbounds %struct.uv_fs_s, ptr %1, i32 0, i32 1
  store i32 6, ptr %type, align 8
  br label %do.end

do.end:                                           ; preds = %do.body1
  %2 = load ptr, ptr %req.addr, align 8
  %fs_type = getelementptr inbounds %struct.uv_fs_s, ptr %2, i32 0, i32 3
  store i32 29, ptr %fs_type, align 8
  %3 = load ptr, ptr %req.addr, align 8
  %result = getelementptr inbounds %struct.uv_fs_s, ptr %3, i32 0, i32 6
  store i64 0, ptr %result, align 8
  %4 = load ptr, ptr %req.addr, align 8
  %ptr = getelementptr inbounds %struct.uv_fs_s, ptr %4, i32 0, i32 7
  store ptr null, ptr %ptr, align 8
  %5 = load ptr, ptr %loop.addr, align 8
  %6 = load ptr, ptr %req.addr, align 8
  %loop2 = getelementptr inbounds %struct.uv_fs_s, ptr %6, i32 0, i32 4
  store ptr %5, ptr %loop2, align 8
  %7 = load ptr, ptr %req.addr, align 8
  %path3 = getelementptr inbounds %struct.uv_fs_s, ptr %7, i32 0, i32 8
  store ptr null, ptr %path3, align 8
  %8 = load ptr, ptr %req.addr, align 8
  %new_path4 = getelementptr inbounds %struct.uv_fs_s, ptr %8, i32 0, i32 10
  store ptr null, ptr %new_path4, align 8
  %9 = load ptr, ptr %req.addr, align 8
  %bufs = getelementptr inbounds %struct.uv_fs_s, ptr %9, i32 0, i32 15
  store ptr null, ptr %bufs, align 8
  %10 = load ptr, ptr %cb.addr, align 8
  %11 = load ptr, ptr %req.addr, align 8
  %cb5 = getelementptr inbounds %struct.uv_fs_s, ptr %11, i32 0, i32 5
  store ptr %10, ptr %cb5, align 8
  br label %do.end6

do.end6:                                          ; preds = %do.end
  %12 = load i32, ptr %flags.addr, align 4
  %and = and i32 %12, -8
  %tobool = icmp ne i32 %and, 0
  br i1 %tobool, label %if.then7, label %if.end8

if.then7:                                         ; preds = %do.end6
  store i32 -22, ptr %retval, align 4
  br label %do.end38

if.end8:                                          ; preds = %do.end6
  br label %do.body9

do.body9:                                         ; preds = %if.end8
  %13 = load ptr, ptr %cb.addr, align 8
  %cmp10 = icmp eq ptr %13, null
  br i1 %cmp10, label %if.then11, label %if.else

if.then11:                                        ; preds = %do.body9
  %14 = load ptr, ptr %path.addr, align 8
  %15 = load ptr, ptr %req.addr, align 8
  %path12 = getelementptr inbounds %struct.uv_fs_s, ptr %15, i32 0, i32 8
  store ptr %14, ptr %path12, align 8
  %16 = load ptr, ptr %new_path.addr, align 8
  %17 = load ptr, ptr %req.addr, align 8
  %new_path13 = getelementptr inbounds %struct.uv_fs_s, ptr %17, i32 0, i32 10
  store ptr %16, ptr %new_path13, align 8
  br label %if.end27

if.else:                                          ; preds = %do.body9
  %18 = load ptr, ptr %path.addr, align 8
  %call = call i64 @strlen(ptr noundef %18) #10
  %add = add i64 %call, 1
  store i64 %add, ptr %path_len, align 8
  %19 = load ptr, ptr %new_path.addr, align 8
  %call14 = call i64 @strlen(ptr noundef %19) #10
  %add15 = add i64 %call14, 1
  store i64 %add15, ptr %new_path_len, align 8
  %20 = load i64, ptr %path_len, align 8
  %21 = load i64, ptr %new_path_len, align 8
  %add16 = add i64 %20, %21
  %call17 = call ptr @uv__malloc(i64 noundef %add16)
  %22 = load ptr, ptr %req.addr, align 8
  %path18 = getelementptr inbounds %struct.uv_fs_s, ptr %22, i32 0, i32 8
  store ptr %call17, ptr %path18, align 8
  %23 = load ptr, ptr %req.addr, align 8
  %path19 = getelementptr inbounds %struct.uv_fs_s, ptr %23, i32 0, i32 8
  %24 = load ptr, ptr %path19, align 8
  %cmp20 = icmp eq ptr %24, null
  br i1 %cmp20, label %if.then21, label %if.end22

if.then21:                                        ; preds = %if.else
  store i32 -12, ptr %retval, align 4
  br label %do.end38

if.end22:                                         ; preds = %if.else
  %25 = load ptr, ptr %req.addr, align 8
  %path23 = getelementptr inbounds %struct.uv_fs_s, ptr %25, i32 0, i32 8
  %26 = load ptr, ptr %path23, align 8
  %27 = load i64, ptr %path_len, align 8
  %add.ptr = getelementptr inbounds i8, ptr %26, i64 %27
  %28 = load ptr, ptr %req.addr, align 8
  %new_path24 = getelementptr inbounds %struct.uv_fs_s, ptr %28, i32 0, i32 10
  store ptr %add.ptr, ptr %new_path24, align 8
  %29 = load ptr, ptr %req.addr, align 8
  %path25 = getelementptr inbounds %struct.uv_fs_s, ptr %29, i32 0, i32 8
  %30 = load ptr, ptr %path25, align 8
  %31 = load ptr, ptr %path.addr, align 8
  %32 = load i64, ptr %path_len, align 8
  call void @llvm.memcpy.p0.p0.i64(ptr align 1 %30, ptr align 1 %31, i64 %32, i1 false)
  %33 = load ptr, ptr %req.addr, align 8
  %new_path26 = getelementptr inbounds %struct.uv_fs_s, ptr %33, i32 0, i32 10
  %34 = load ptr, ptr %new_path26, align 8
  %35 = load ptr, ptr %new_path.addr, align 8
  %36 = load i64, ptr %new_path_len, align 8
  call void @llvm.memcpy.p0.p0.i64(ptr align 1 %34, ptr align 1 %35, i64 %36, i1 false)
  br label %if.end27

if.end27:                                         ; preds = %if.end22, %if.then11
  br label %do.end28

do.end28:                                         ; preds = %if.end27
  %37 = load i32, ptr %flags.addr, align 4
  %38 = load ptr, ptr %req.addr, align 8
  %flags29 = getelementptr inbounds %struct.uv_fs_s, ptr %38, i32 0, i32 12
  store i32 %37, ptr %flags29, align 4
  br label %do.body30

do.body30:                                        ; preds = %do.end28
  %39 = load ptr, ptr %cb.addr, align 8
  %cmp31 = icmp ne ptr %39, null
  br i1 %cmp31, label %if.then32, label %if.else35

if.then32:                                        ; preds = %do.body30
  br label %do.body33

do.body33:                                        ; preds = %if.then32
  %40 = load ptr, ptr %loop.addr, align 8
  %active_reqs = getelementptr inbounds %struct.uv_loop_s, ptr %40, i32 0, i32 3
  %41 = load i32, ptr %active_reqs, align 8
  %inc = add i32 %41, 1
  store i32 %inc, ptr %active_reqs, align 8
  br label %do.end34

do.end34:                                         ; preds = %do.body33
  %42 = load ptr, ptr %loop.addr, align 8
  %43 = load ptr, ptr %req.addr, align 8
  %work_req = getelementptr inbounds %struct.uv_fs_s, ptr %43, i32 0, i32 21
  call void @uv__work_submit(ptr noundef %42, ptr noundef %work_req, i32 noundef 1, ptr noundef @uv__fs_work, ptr noundef @uv__fs_done)
  store i32 0, ptr %retval, align 4
  br label %do.end38

if.else35:                                        ; preds = %do.body30
  %44 = load ptr, ptr %req.addr, align 8
  %work_req36 = getelementptr inbounds %struct.uv_fs_s, ptr %44, i32 0, i32 21
  call void @uv__fs_work(ptr noundef %work_req36)
  %45 = load ptr, ptr %req.addr, align 8
  %result37 = getelementptr inbounds %struct.uv_fs_s, ptr %45, i32 0, i32 6
  %46 = load i64, ptr %result37, align 8
  %conv = trunc i64 %46 to i32
  store i32 %conv, ptr %retval, align 4
  br label %do.end38

do.end38:                                         ; preds = %if.else35, %do.end34, %if.then21, %if.then7, %if.then
  %47 = load i32, ptr %retval, align 4
  ret i32 %47
}