; Function Attrs: nounwind uwtable
define i32 @uv_fs_copyfile(ptr noundef %loop, ptr noundef %req, ptr noundef %path, ptr noundef %new_path, i32 noundef %flags, ptr noundef %cb) local_unnamed_addr #0 {
entry:
  %cmp = icmp eq ptr %req, null
  br i1 %cmp, label %do.end38, label %do.body1

do.body1:                                         ; preds = %entry
  %type = getelementptr inbounds nuw i8, ptr %req, i64 8
  store i32 6, ptr %type, align 8
  %fs_type = getelementptr inbounds nuw i8, ptr %req, i64 64
  store i32 29, ptr %fs_type, align 8
  %result = getelementptr inbounds nuw i8, ptr %req, i64 88
  %loop2 = getelementptr inbounds nuw i8, ptr %req, i64 72
  tail call void @llvm.memset.p0.i64(ptr noundef nonnull align 8 dereferenceable(16) %result, i8 0, i64 16, i1 false)
  store ptr %loop, ptr %loop2, align 8
  %path3 = getelementptr inbounds nuw i8, ptr %req, i64 104
  store ptr null, ptr %path3, align 8
  %new_path4 = getelementptr inbounds nuw i8, ptr %req, i64 272
  store ptr null, ptr %new_path4, align 8
  %bufs = getelementptr inbounds nuw i8, ptr %req, i64 296
  store ptr null, ptr %bufs, align 8
  %cb5 = getelementptr inbounds nuw i8, ptr %req, i64 80
  store ptr %cb, ptr %cb5, align 8
  %tobool.not = icmp ult i32 %flags, 8
  br i1 %tobool.not, label %do.body9, label %do.end38

do.body9:                                         ; preds = %do.body1
  %cmp10 = icmp eq ptr %cb, null
  br i1 %cmp10, label %if.else35, label %if.else

if.else:                                          ; preds = %do.body9
  %call = tail call i64 @strlen(ptr noundef nonnull dereferenceable(1) %path) #17
  %add = add i64 %call, 1
  %call14 = tail call i64 @strlen(ptr noundef nonnull dereferenceable(1) %new_path) #17
  %add15 = add i64 %call14, 1
  %add16 = add i64 %add15, %add
  %call17 = tail call ptr @uv__malloc(i64 noundef %add16) #15
  store ptr %call17, ptr %path3, align 8
  %cmp20 = icmp eq ptr %call17, null
  br i1 %cmp20, label %do.end38, label %do.body33

do.body33:                                        ; preds = %if.else
  %add.ptr = getelementptr inbounds i8, ptr %call17, i64 %add
  store ptr %add.ptr, ptr %new_path4, align 8
  tail call void @llvm.memcpy.p0.p0.i64(ptr nonnull align 1 %call17, ptr nonnull align 1 %path, i64 %add, i1 false)
  %0 = load ptr, ptr %new_path4, align 8
  tail call void @llvm.memcpy.p0.p0.i64(ptr align 1 %0, ptr nonnull align 1 %new_path, i64 %add15, i1 false)
  %flags29 = getelementptr inbounds nuw i8, ptr %req, i64 284
  store i32 %flags, ptr %flags29, align 4
  %active_reqs = getelementptr inbounds nuw i8, ptr %loop, i64 32
  %1 = load i32, ptr %active_reqs, align 8
  %inc = add i32 %1, 1
  store i32 %inc, ptr %active_reqs, align 8
  %work_req = getelementptr inbounds nuw i8, ptr %req, i64 336
  tail call void @uv__work_submit(ptr noundef %loop, ptr noundef nonnull %work_req, i32 noundef 1, ptr noundef nonnull @uv__fs_work, ptr noundef nonnull @uv__fs_done) #15
  br label %do.end38

if.else35:                                        ; preds = %do.body9
  store ptr %path, ptr %path3, align 8
  store ptr %new_path, ptr %new_path4, align 8
  %flags2934 = getelementptr inbounds nuw i8, ptr %req, i64 284
  store i32 %flags, ptr %flags2934, align 4
  %work_req36 = getelementptr inbounds nuw i8, ptr %req, i64 336
  tail call void @uv__fs_work(ptr noundef nonnull %work_req36)
  %2 = load i64, ptr %result, align 8
  %conv = trunc i64 %2 to i32
  br label %do.end38

do.end38:                                         ; preds = %if.else, %do.body1, %entry, %if.else35, %do.body33
  %retval.0 = phi i32 [ 0, %do.body33 ], [ %conv, %if.else35 ], [ -22, %entry ], [ -22, %do.body1 ], [ -12, %if.else ]
  ret i32 %retval.0
}